; Function Attrs: nounwind sspstrong uwtable
define dso_local void @rb_nativethread_lock_unlock(ptr noundef %0) local_unnamed_addr #0 {
  %2 = tail call i32 @pthread_mutex_unlock(ptr noundef %0) #17
  %.not.i = icmp eq i32 %2, 0
  br i1 %.not.i, label %rb_native_mutex_unlock.exit, label %3

3:                                                ; preds = %1
  tail call void @rb_bug_errno(ptr noundef nonnull @.str.3, i32 noundef %2) #38
  unreachable

rb_native_mutex_unlock.exit:                      ; preds = %1
  ret void
}